target datalayout = "e-m:e-p270:32:32-p271:32:32-p272:64:64-i64:64-i128:128-f80:128-n8:16:32:64-S128"
target triple = "x86_64-pc-linux-gnu"

%"class.draco::AttributeOctahedronTransform" = type <{ %"class.draco::AttributeTransform", i32, [4 x i8] }>
%"class.draco::AttributeTransform" = type { ptr }
%"class.draco::DecoderBuffer" = type <{ ptr, i64, i64, %"class.draco::DecoderBuffer::BitDecoder", i8, i8, i16, [4 x i8] }>
%"class.draco::DecoderBuffer::BitDecoder" = type { ptr, ptr, i64 }

; Function Attrs: mustprogress nounwind uwtable
define linkonce_odr noundef zeroext i1 @_ZN5draco13DecoderBuffer4PeekIhEEbPT_(ptr noundef nonnull align 8 dereferenceable(52) %0, ptr noundef %1) #6 comdat align 2 {
  %3 = alloca i1, align 1
  %4 = alloca ptr, align 8
  %5 = alloca ptr, align 8
  %6 = alloca i64, align 8
  %7 = alloca i32, align 4
  store ptr %0, ptr %4, align 8, !tbaa !87
  store ptr %1, ptr %5, align 8, !tbaa !62
  %8 = load ptr, ptr %4, align 8
  call void @llvm.lifetime.start.p0(i64 8, ptr %6) #3
  store i64 1, ptr %6, align 8, !tbaa !68
  %9 = getelementptr inbounds nuw %"class.draco::DecoderBuffer", ptr %8, i32 0, i32 1
  %10 = load i64, ptr %9, align 8, !tbaa !174
  %11 = getelementptr inbounds nuw %"class.draco::DecoderBuffer", ptr %8, i32 0, i32 2
  %12 = load i64, ptr %11, align 8, !tbaa !89
  %13 = add i64 %12, 1
  %14 = icmp slt i64 %10, %13
  br i1 %14, label %15, label %16

15:                                               ; preds = %2
  store i1 false, ptr %3, align 1
  store i32 1, ptr %7, align 4
  br label %23

16:                                               ; preds = %2
  %17 = load ptr, ptr %5, align 8, !tbaa !62
  %18 = getelementptr inbounds nuw %"class.draco::DecoderBuffer", ptr %8, i32 0, i32 0
  %19 = load ptr, ptr %18, align 8, !tbaa !175
  %20 = getelementptr inbounds nuw %"class.draco::DecoderBuffer", ptr %8, i32 0, i32 2
  %21 = load i64, ptr %20, align 8, !tbaa !89
  %22 = getelementptr inbounds i8, ptr %19, i64 %21
  call void @llvm.memcpy.p0.p0.i64(ptr align 1 %17, ptr align 1 %22, i64 1, i1 false)
  store i1 true, ptr %3, align 1
  store i32 1, ptr %7, align 4
  br label %23

23:                                               ; preds = %16, %15
  call void @llvm.lifetime.end.p0(i64 8, ptr %6) #3
  %24 = load i1, ptr %3, align 1
  ret i1 %24
}

; Function Attrs: mustprogress uwtable
define linkonce_odr noundef zeroext i1 @_ZN5draco13DecoderBuffer6DecodeIhEEbPT_(ptr noundef nonnull align 8 dereferenceable(52) %0, ptr noundef %1) #4 comdat align 2 {
  %3 = alloca i1, align 1
  %4 = alloca ptr, align 8
  %5 = alloca ptr, align 8
  store ptr %0, ptr %4, align 8, !tbaa !87
  store ptr %1, ptr %5, align 8, !tbaa !62
  %6 = load ptr, ptr %4, align 8
  %7 = load ptr, ptr %5, align 8, !tbaa !62
  %8 = call noundef zeroext i1 @_ZN5draco13DecoderBuffer4PeekIhEEbPT_(ptr noundef nonnull align 8 dereferenceable(52) %6, ptr noundef %7)
  br i1 %8, label %10, label %9

9:                                                ; preds = %2
  store i1 false, ptr %3, align 1
  br label %14

10:                                               ; preds = %2
  %11 = getelementptr inbounds nuw %"class.draco::DecoderBuffer", ptr %6, i32 0, i32 2
  %12 = load i64, ptr %11, align 8, !tbaa !89
  %13 = add i64 %12, 1
  store i64 %13, ptr %11, align 8, !tbaa !89
  store i1 true, ptr %3, align 1
  br label %14

14:                                               ; preds = %10, %9
  %15 = load i1, ptr %3, align 1
  ret i1 %15
}

; Function Attrs: mustprogress uwtable
define noundef zeroext i1 @_ZN5draco28AttributeOctahedronTransform16DecodeParametersERKNS_14PointAttributeEPNS_13DecoderBufferE(ptr noundef nonnull align 8 dereferenceable(12) %0, ptr noundef nonnull align 8 dereferenceable(112) %1, ptr noundef %2) unnamed_addr #4 align 2 {
  %4 = alloca i1, align 1
  %5 = alloca ptr, align 8
  %6 = alloca ptr, align 8
  %7 = alloca ptr, align 8
  %8 = alloca i8, align 1
  %9 = alloca i32, align 4
  store ptr %0, ptr %5, align 8, !tbaa !3
  store ptr %1, ptr %6, align 8, !tbaa !8
  store ptr %2, ptr %7, align 8, !tbaa !87
  %10 = load ptr, ptr %5, align 8
  call void @llvm.lifetime.start.p0(i64 1, ptr %8) #3
  %11 = load ptr, ptr %7, align 8, !tbaa !87
  %12 = call noundef zeroext i1 @_ZN5draco13DecoderBuffer6DecodeIhEEbPT_(ptr noundef nonnull align 8 dereferenceable(52) %11, ptr noundef %8)
  br i1 %12, label %14, label %13

13:                                               ; preds = %3
  store i1 false, ptr %4, align 1
  store i32 1, ptr %9, align 4
  br label %18

14:                                               ; preds = %3
  %15 = load i8, ptr %8, align 1, !tbaa !86
  %16 = zext i8 %15 to i32
  %17 = getelementptr inbounds nuw %"class.draco::AttributeOctahedronTransform", ptr %10, i32 0, i32 1
  store i32 %16, ptr %17, align 8, !tbaa !12
  store i1 true, ptr %4, align 1
  store i32 1, ptr %9, align 4
  br label %18

18:                                               ; preds = %14, %13
  call void @llvm.lifetime.end.p0(i64 1, ptr %8) #3
  %19 = load i1, ptr %4, align 1
  ret i1 %19
}