; Function Attrs: mustprogress nofree norecurse nosync nounwind willreturn memory(read, argmem: readwrite, inaccessiblemem: none) uwtable
define noundef zeroext i1 @_ZN5draco28AttributeOctahedronTransform16DecodeParametersERKNS_14PointAttributeEPNS_13DecoderBufferE(ptr noundef nonnull writeonly align 8 captures(none) dereferenceable(12) %0, ptr nonnull readnone align 8 captures(none) %1, ptr noundef captures(none) %2) unnamed_addr #3 align 2 {
  %4 = getelementptr inbounds nuw i8, ptr %2, i64 8
  %5 = load i64, ptr %4, align 8, !tbaa !91
  %6 = getelementptr inbounds nuw i8, ptr %2, i64 16
  %7 = load i64, ptr %6, align 8, !tbaa !95
  %8 = add i64 %7, 1
  %9 = icmp sge i64 %5, %8
  br i1 %9, label %10, label %_ZN5draco13DecoderBuffer6DecodeIhEEbPT_.exit

10:                                               ; preds = %3
  %11 = load ptr, ptr %2, align 8, !tbaa !96
  %12 = getelementptr inbounds i8, ptr %11, i64 %7
  %13 = load i8, ptr %12, align 1
  store i64 %8, ptr %6, align 8, !tbaa !95
  %14 = zext i8 %13 to i32
  %15 = getelementptr inbounds nuw i8, ptr %0, i64 8
  store i32 %14, ptr %15, align 8, !tbaa !20
  br label %_ZN5draco13DecoderBuffer6DecodeIhEEbPT_.exit

_ZN5draco13DecoderBuffer6DecodeIhEEbPT_.exit:     ; preds = %3, %10
  ret i1 %9
}